; Function Attrs: nofree norecurse nosync nounwind memory(argmem: readwrite) uwtable
define internal void @biquad_zdf_s32(ptr noundef readonly captures(none) %0, ptr noundef readonly captures(none) %1, ptr noundef writeonly captures(none) %2, i32 noundef %3, ptr noundef captures(none) %4, ptr noundef captures(none) %5, i32 noundef %6) #7 {
  %8 = getelementptr inbounds nuw i8, ptr %0, i64 112
  %9 = getelementptr inbounds nuw i8, ptr %0, i64 136
  %10 = load double, ptr %9, align 8, !tbaa !53
  %11 = getelementptr inbounds nuw i8, ptr %0, i64 144
  %12 = load double, ptr %11, align 8, !tbaa !53
  %13 = getelementptr inbounds nuw i8, ptr %0, i64 152
  %14 = load double, ptr %13, align 8, !tbaa !53
  %15 = load double, ptr %8, align 8, !tbaa !53
  %16 = getelementptr inbounds nuw i8, ptr %0, i64 120
  %17 = load double, ptr %16, align 8, !tbaa !53
  %18 = getelementptr inbounds nuw i8, ptr %0, i64 128
  %19 = load double, ptr %18, align 8, !tbaa !53
  %20 = load double, ptr %4, align 8, !tbaa !53
  %21 = getelementptr inbounds nuw i8, ptr %4, i64 8
  %22 = load double, ptr %21, align 8, !tbaa !53
  %23 = getelementptr inbounds nuw i8, ptr %0, i64 64
  %24 = load double, ptr %23, align 8, !tbaa !75
  %25 = fsub nsz double 1.000000e+00, %24
  %26 = icmp sgt i32 %3, 0
  br i1 %26, label %.lr.ph, label %._crit_edge

.lr.ph:                                           ; preds = %7
  %.not = icmp eq i32 %6, 0
  %wide.trip.count80 = zext nneg i32 %3 to i64
  br i1 %.not, label %.lr.ph.split.us, label %.lr.ph.split

.lr.ph.split.us:                                  ; preds = %.lr.ph, %55
  %indvars.iv77 = phi i64 [ %indvars.iv.next78, %55 ], [ 0, %.lr.ph ]
  %.069.us = phi double [ %36, %55 ], [ %20, %.lr.ph ]
  %.06468.us = phi double [ %38, %55 ], [ %22, %.lr.ph ]
  %27 = getelementptr inbounds nuw i32, ptr %1, i64 %indvars.iv77
  %28 = load i32, ptr %27, align 4, !tbaa !30
  %29 = sitofp i32 %28 to double
  %30 = fsub nsz double %29, %.06468.us
  %31 = fmul nsz double %17, %30
  %32 = tail call nsz double @llvm.fmuladd.f64(double %15, double %.069.us, double %31)
  %33 = tail call nsz double @llvm.fmuladd.f64(double %17, double %.069.us, double %.06468.us)
  %34 = tail call nsz double @llvm.fmuladd.f64(double %19, double %30, double %33)
  %35 = fneg nsz double %.069.us
  %36 = tail call nsz double @llvm.fmuladd.f64(double %32, double 2.000000e+00, double %35)
  %37 = fneg nsz double %.06468.us
  %38 = tail call nsz double @llvm.fmuladd.f64(double %34, double 2.000000e+00, double %37)
  %39 = fmul nsz double %12, %32
  %40 = tail call nsz double @llvm.fmuladd.f64(double %10, double %29, double %39)
  %41 = tail call nsz double @llvm.fmuladd.f64(double %14, double %34, double %40)
  %42 = fmul nsz double %25, %29
  %43 = tail call nsz double @llvm.fmuladd.f64(double %41, double %24, double %42)
  %44 = fcmp nsz olt double %43, 0xC1E0000000000000
  br i1 %44, label %52, label %45

45:                                               ; preds = %.lr.ph.split.us
  %46 = fcmp nsz ogt double %43, 0x41DFFFFFFFC00000
  br i1 %46, label %49, label %47

47:                                               ; preds = %45
  %48 = fptosi double %43 to i32
  br label %55

49:                                               ; preds = %45
  %50 = load i32, ptr %5, align 4, !tbaa !30
  %51 = add nsw i32 %50, 1
  store i32 %51, ptr %5, align 4, !tbaa !30
  br label %55

52:                                               ; preds = %.lr.ph.split.us
  %53 = load i32, ptr %5, align 4, !tbaa !30
  %54 = add nsw i32 %53, 1
  store i32 %54, ptr %5, align 4, !tbaa !30
  br label %55

55:                                               ; preds = %52, %49, %47
  %.sink = phi i32 [ -2147483648, %52 ], [ 2147483647, %49 ], [ %48, %47 ]
  %56 = getelementptr inbounds nuw i32, ptr %2, i64 %indvars.iv77
  store i32 %.sink, ptr %56, align 4, !tbaa !30
  %indvars.iv.next78 = add nuw nsw i64 %indvars.iv77, 1
  %exitcond81.not = icmp eq i64 %indvars.iv.next78, %wide.trip.count80
  br i1 %exitcond81.not, label %._crit_edge, label %.lr.ph.split.us, !llvm.loop !103

._crit_edge:                                      ; preds = %.lr.ph.split, %55, %7
  %.064.lcssa = phi double [ %22, %7 ], [ %38, %55 ], [ %68, %.lr.ph.split ]
  %.0.lcssa = phi double [ %20, %7 ], [ %36, %55 ], [ %66, %.lr.ph.split ]
  store double %.0.lcssa, ptr %4, align 8, !tbaa !53
  store double %.064.lcssa, ptr %21, align 8, !tbaa !53
  ret void

.lr.ph.split:                                     ; preds = %.lr.ph, %.lr.ph.split
  %indvars.iv = phi i64 [ %indvars.iv.next, %.lr.ph.split ], [ 0, %.lr.ph ]
  %.069 = phi double [ %66, %.lr.ph.split ], [ %20, %.lr.ph ]
  %.06468 = phi double [ %68, %.lr.ph.split ], [ %22, %.lr.ph ]
  %57 = getelementptr inbounds nuw i32, ptr %1, i64 %indvars.iv
  %58 = load i32, ptr %57, align 4, !tbaa !30
  %59 = sitofp i32 %58 to double
  %60 = fsub nsz double %59, %.06468
  %61 = fmul nsz double %17, %60
  %62 = tail call nsz double @llvm.fmuladd.f64(double %15, double %.069, double %61)
  %63 = tail call nsz double @llvm.fmuladd.f64(double %17, double %.069, double %.06468)
  %64 = tail call nsz double @llvm.fmuladd.f64(double %19, double %60, double %63)
  %65 = fneg nsz double %.069
  %66 = tail call nsz double @llvm.fmuladd.f64(double %62, double 2.000000e+00, double %65)
  %67 = fneg nsz double %.06468
  %68 = tail call nsz double @llvm.fmuladd.f64(double %64, double 2.000000e+00, double %67)
  %69 = getelementptr inbounds nuw i32, ptr %2, i64 %indvars.iv
  store i32 %58, ptr %69, align 4, !tbaa !30
  %indvars.iv.next = add nuw nsw i64 %indvars.iv, 1
  %exitcond.not = icmp eq i64 %indvars.iv.next, %wide.trip.count80
  br i1 %exitcond.not, label %._crit_edge, label %.lr.ph.split, !llvm.loop !103
}